centhought.traits.traits
__newobj__
p0
(c__main__
B
p1
tp2
Rp3
(dp4
S'a'
p5
g0
(c__main__
A
p6
tp7
Rp8
(dp9
S'__traits_version__'
p10
S'3.3.1.dev-r0'
p11
sS'rho'
p12
I3
sS'value'
p13
I2
sS'rrho'
p14
I3
sbsg10
g11
sb.