centhought.traits.traits
__newobj__
p0
(c__main__
B
p1
tp2
Rp3
(dp4
S'a'
p5
g0
(c__main__
A
p6
tp7
Rp8
(dp9
S'__traits_version__'
p10
S'3.2.1.dev-r24544'
p11
sS'value'
p12
I2
sS'rho'
p13
I3
sbsg10
g11
sb.