centhought.traits.traits
__newobj__
p0
(c__main__
ExT
p1
tp2
Rp3
(dp4
S'__traits_version__'
p5
S'3.2.1.dev-r24544'
p6
sS'ccs'
p7
g0
(c__main__
CCS
p8
tp9
Rp10
(dp11
g5
g6
sS'rho_ccc'
p12
I3
sS'cm_key'
p13
S'b'
p14
sbsb.