centhought.traits.traits
__newobj__
p0
(cmathkit.mfn.mfn_line.mfn_line
MFnLineArray
p1
tp2
Rp3
(dp4
S'__traits_version__'
p5
S'3.2.1.dev-r0'
p6
sS'ydata'
p7
cnumpy.core.multiarray
_reconstruct
p8
(cnumpy
ndarray
p9
(I0
tp10
S'b'
p11
tp12
Rp13
(I1
(I2
tp14
cnumpy
dtype
p15
(S'f8'
p16
I0
I1
tp17
Rp18
(I3
S'<'
p19
NNNI-1
I-1
I0
tp20
bI00
S'\x00\x00\x00\x00\x00\x00\x00\x00\xb7\xd01\x00\x00\x00$@'
p21
tp22
bsS'xdata'
p23
g8
(g9
(I0
tp24
g11
tp25
Rp26
(I1
(I2
tp27
g18
I00
S'\x00\x00\x00\x00\x00\x00\x00\x80\xa0\x82)\xe6`D~?'
p28
tp29
bsb.